target datalayout = "e-m:e-p270:32:32-p271:32:32-p272:64:64-i64:64-i128:128-f80:128-n8:16:32:64-S128"
target triple = "x86_64-pc-linux-gnu"

%struct.Vec_Int_t_ = type { i32, i32, ptr }
%struct.Vec_Wrd_t_ = type { i32, i32, ptr }

@.str.33 = private unnamed_addr constant [3 x i8] c"rb\00", align 1
@.str.34 = private unnamed_addr constant [36 x i8] c"Cannot open file \22%s\22 for reading.\0A\00", align 1
@.str.37 = private unnamed_addr constant [100 x i8] c"Finished reading %d simulation patterns for %d inputs. Probability of 1 at the output is %6.2f %%.\0A\00", align 1

; Function Attrs: inlinehint nounwind uwtable
define internal void @Vec_IntGrow(ptr noundef %0, i32 noundef %1) #4 {
  %3 = alloca ptr, align 8
  %4 = alloca i32, align 4
  store ptr %0, ptr %3, align 8, !tbaa !73
  store i32 %1, ptr %4, align 4, !tbaa !10
  %5 = load ptr, ptr %3, align 8, !tbaa !73
  %6 = getelementptr inbounds nuw %struct.Vec_Int_t_, ptr %5, i32 0, i32 0
  %7 = load i32, ptr %6, align 8, !tbaa !96
  %8 = load i32, ptr %4, align 4, !tbaa !10
  %9 = icmp sge i32 %7, %8
  br i1 %9, label %10, label %11

10:                                               ; preds = %2
  br label %36

11:                                               ; preds = %2
  %12 = load ptr, ptr %3, align 8, !tbaa !73
  %13 = getelementptr inbounds nuw %struct.Vec_Int_t_, ptr %12, i32 0, i32 2
  %14 = load ptr, ptr %13, align 8, !tbaa !97
  %15 = icmp ne ptr %14, null
  br i1 %15, label %16, label %24

16:                                               ; preds = %11
  %17 = load ptr, ptr %3, align 8, !tbaa !73
  %18 = getelementptr inbounds nuw %struct.Vec_Int_t_, ptr %17, i32 0, i32 2
  %19 = load ptr, ptr %18, align 8, !tbaa !97
  %20 = load i32, ptr %4, align 4, !tbaa !10
  %21 = sext i32 %20 to i64
  %22 = mul i64 4, %21
  %23 = call ptr @realloc(ptr noundef %19, i64 noundef %22) #20
  br label %29

24:                                               ; preds = %11
  %25 = load i32, ptr %4, align 4, !tbaa !10
  %26 = sext i32 %25 to i64
  %27 = mul i64 4, %26
  %28 = call noalias ptr @malloc(i64 noundef %27) #16
  br label %29

29:                                               ; preds = %24, %16
  %30 = phi ptr [ %23, %16 ], [ %28, %24 ]
  %31 = load ptr, ptr %3, align 8, !tbaa !73
  %32 = getelementptr inbounds nuw %struct.Vec_Int_t_, ptr %31, i32 0, i32 2
  store ptr %30, ptr %32, align 8, !tbaa !97
  %33 = load i32, ptr %4, align 4, !tbaa !10
  %34 = load ptr, ptr %3, align 8, !tbaa !73
  %35 = getelementptr inbounds nuw %struct.Vec_Int_t_, ptr %34, i32 0, i32 0
  store i32 %33, ptr %35, align 8, !tbaa !96
  br label %36

36:                                               ; preds = %29, %10
  ret void
}

; Function Attrs: inlinehint nounwind uwtable
define internal i32 @Vec_IntSum(ptr noundef %0) #4 {
  %2 = alloca ptr, align 8
  %3 = alloca i32, align 4
  %4 = alloca i32, align 4
  store ptr %0, ptr %2, align 8, !tbaa !73
  call void @llvm.lifetime.start.p0(i64 4, ptr %3) #15
  call void @llvm.lifetime.start.p0(i64 4, ptr %4) #15
  store i32 0, ptr %4, align 4, !tbaa !10
  store i32 0, ptr %3, align 4, !tbaa !10
  br label %5

5:                                                ; preds = %21, %1
  %6 = load i32, ptr %3, align 4, !tbaa !10
  %7 = load ptr, ptr %2, align 8, !tbaa !73
  %8 = getelementptr inbounds nuw %struct.Vec_Int_t_, ptr %7, i32 0, i32 1
  %9 = load i32, ptr %8, align 4, !tbaa !74
  %10 = icmp slt i32 %6, %9
  br i1 %10, label %11, label %24

11:                                               ; preds = %5
  %12 = load ptr, ptr %2, align 8, !tbaa !73
  %13 = getelementptr inbounds nuw %struct.Vec_Int_t_, ptr %12, i32 0, i32 2
  %14 = load ptr, ptr %13, align 8, !tbaa !97
  %15 = load i32, ptr %3, align 4, !tbaa !10
  %16 = sext i32 %15 to i64
  %17 = getelementptr inbounds i32, ptr %14, i64 %16
  %18 = load i32, ptr %17, align 4, !tbaa !10
  %19 = load i32, ptr %4, align 4, !tbaa !10
  %20 = add nsw i32 %19, %18
  store i32 %20, ptr %4, align 4, !tbaa !10
  br label %21

21:                                               ; preds = %11
  %22 = load i32, ptr %3, align 4, !tbaa !10
  %23 = add nsw i32 %22, 1
  store i32 %23, ptr %3, align 4, !tbaa !10
  br label %5, !llvm.loop !98

24:                                               ; preds = %5
  %25 = load i32, ptr %4, align 4, !tbaa !10
  call void @llvm.lifetime.end.p0(i64 4, ptr %4) #15
  call void @llvm.lifetime.end.p0(i64 4, ptr %3) #15
  ret i32 %25
}

; Function Attrs: inlinehint nounwind uwtable
define internal void @Abc_TtSetBit(ptr noundef %0, i32 noundef %1) #4 {
  %3 = alloca ptr, align 8
  %4 = alloca i32, align 4
  store ptr %0, ptr %3, align 8, !tbaa !16
  store i32 %1, ptr %4, align 4, !tbaa !10
  %5 = load i32, ptr %4, align 4, !tbaa !10
  %6 = and i32 %5, 63
  %7 = zext i32 %6 to i64
  %8 = shl i64 1, %7
  %9 = load ptr, ptr %3, align 8, !tbaa !16
  %10 = load i32, ptr %4, align 4, !tbaa !10
  %11 = ashr i32 %10, 6
  %12 = sext i32 %11 to i64
  %13 = getelementptr inbounds i64, ptr %9, i64 %12
  %14 = load i64, ptr %13, align 8, !tbaa !45
  %15 = or i64 %14, %8
  store i64 %15, ptr %13, align 8, !tbaa !45
  ret void
}

; Function Attrs: inlinehint nounwind uwtable
define internal ptr @Vec_WrdEntryP(ptr noundef %0, i32 noundef %1) #4 {
  %3 = alloca ptr, align 8
  %4 = alloca i32, align 4
  store ptr %0, ptr %3, align 8, !tbaa !3
  store i32 %1, ptr %4, align 4, !tbaa !10
  %5 = load ptr, ptr %3, align 8, !tbaa !3
  %6 = getelementptr inbounds nuw %struct.Vec_Wrd_t_, ptr %5, i32 0, i32 2
  %7 = load ptr, ptr %6, align 8, !tbaa !43
  %8 = load i32, ptr %4, align 4, !tbaa !10
  %9 = sext i32 %8 to i64
  %10 = getelementptr inbounds i64, ptr %7, i64 %9
  ret ptr %10
}

; Function Attrs: inlinehint nounwind uwtable
define internal void @Vec_IntPush(ptr noundef %0, i32 noundef %1) #4 {
  %3 = alloca ptr, align 8
  %4 = alloca i32, align 4
  store ptr %0, ptr %3, align 8, !tbaa !73
  store i32 %1, ptr %4, align 4, !tbaa !10
  %5 = load ptr, ptr %3, align 8, !tbaa !73
  %6 = getelementptr inbounds nuw %struct.Vec_Int_t_, ptr %5, i32 0, i32 1
  %7 = load i32, ptr %6, align 4, !tbaa !74
  %8 = load ptr, ptr %3, align 8, !tbaa !73
  %9 = getelementptr inbounds nuw %struct.Vec_Int_t_, ptr %8, i32 0, i32 0
  %10 = load i32, ptr %9, align 8, !tbaa !96
  %11 = icmp eq i32 %7, %10
  br i1 %11, label %12, label %26

12:                                               ; preds = %2
  %13 = load ptr, ptr %3, align 8, !tbaa !73
  %14 = getelementptr inbounds nuw %struct.Vec_Int_t_, ptr %13, i32 0, i32 0
  %15 = load i32, ptr %14, align 8, !tbaa !96
  %16 = icmp slt i32 %15, 16
  br i1 %16, label %17, label %19

17:                                               ; preds = %12
  %18 = load ptr, ptr %3, align 8, !tbaa !73
  call void @Vec_IntGrow(ptr noundef %18, i32 noundef 16)
  br label %25

19:                                               ; preds = %12
  %20 = load ptr, ptr %3, align 8, !tbaa !73
  %21 = load ptr, ptr %3, align 8, !tbaa !73
  %22 = getelementptr inbounds nuw %struct.Vec_Int_t_, ptr %21, i32 0, i32 0
  %23 = load i32, ptr %22, align 8, !tbaa !96
  %24 = mul nsw i32 2, %23
  call void @Vec_IntGrow(ptr noundef %20, i32 noundef %24)
  br label %25

25:                                               ; preds = %19, %17
  br label %26

26:                                               ; preds = %25, %2
  %27 = load i32, ptr %4, align 4, !tbaa !10
  %28 = load ptr, ptr %3, align 8, !tbaa !73
  %29 = getelementptr inbounds nuw %struct.Vec_Int_t_, ptr %28, i32 0, i32 2
  %30 = load ptr, ptr %29, align 8, !tbaa !97
  %31 = load ptr, ptr %3, align 8, !tbaa !73
  %32 = getelementptr inbounds nuw %struct.Vec_Int_t_, ptr %31, i32 0, i32 1
  %33 = load i32, ptr %32, align 4, !tbaa !74
  %34 = add nsw i32 %33, 1
  store i32 %34, ptr %32, align 4, !tbaa !74
  %35 = sext i32 %33 to i64
  %36 = getelementptr inbounds i32, ptr %30, i64 %35
  store i32 %27, ptr %36, align 4, !tbaa !10
  ret void
}

; Function Attrs: nounwind uwtable
define void @Gia_ManSimFileRead(ptr noundef %0, i32 noundef %1, i32 noundef %2, ptr noundef %3, ptr noundef %4) #0 {
  %6 = alloca ptr, align 8
  %7 = alloca i32, align 4
  %8 = alloca i32, align 4
  %9 = alloca ptr, align 8
  %10 = alloca ptr, align 8
  %11 = alloca i32, align 4
  %12 = alloca i32, align 4
  %13 = alloca i32, align 4
  %14 = alloca i32, align 4
  %15 = alloca ptr, align 8
  %16 = alloca i32, align 4
  store ptr %0, ptr %6, align 8, !tbaa !48
  store i32 %1, ptr %7, align 4, !tbaa !10
  store i32 %2, ptr %8, align 4, !tbaa !10
  store ptr %3, ptr %9, align 8, !tbaa !3
  store ptr %4, ptr %10, align 8, !tbaa !73
  call void @llvm.lifetime.start.p0(i64 4, ptr %11) #15
  call void @llvm.lifetime.start.p0(i64 4, ptr %12) #15
  store i32 0, ptr %12, align 4, !tbaa !10
  call void @llvm.lifetime.start.p0(i64 4, ptr %13) #15
  store i32 0, ptr %13, align 4, !tbaa !10
  call void @llvm.lifetime.start.p0(i64 4, ptr %14) #15
  store i32 0, ptr %14, align 4, !tbaa !10
  call void @llvm.lifetime.start.p0(i64 8, ptr %15) #15
  %17 = load ptr, ptr %6, align 8, !tbaa !48
  %18 = call noalias ptr @fopen(ptr noundef %17, ptr noundef @.str.33)
  store ptr %18, ptr %15, align 8, !tbaa !54
  %19 = load ptr, ptr %15, align 8, !tbaa !54
  %20 = icmp eq ptr %19, null
  br i1 %20, label %21, label %24

21:                                               ; preds = %5
  %22 = load ptr, ptr %6, align 8, !tbaa !48
  %23 = call i32 (ptr, ...) @printf(ptr noundef @.str.34, ptr noundef %22)
  store i32 1, ptr %16, align 4
  br label %86

24:                                               ; preds = %5
  br label %25

25:                                               ; preds = %71, %47, %40, %24
  %26 = load ptr, ptr %15, align 8, !tbaa !54
  %27 = call i32 @fgetc(ptr noundef %26)
  store i32 %27, ptr %11, align 4, !tbaa !10
  %28 = icmp ne i32 %27, -1
  br i1 %28, label %29, label %72

29:                                               ; preds = %25
  %30 = load i32, ptr %11, align 4, !tbaa !10
  %31 = icmp eq i32 %30, 46
  br i1 %31, label %32, label %33

32:                                               ; preds = %29
  store i32 1, ptr %14, align 4, !tbaa !10
  br label %33

33:                                               ; preds = %32, %29
  %34 = load i32, ptr %11, align 4, !tbaa !10
  %35 = icmp eq i32 %34, 10
  br i1 %35, label %36, label %37

36:                                               ; preds = %33
  store i32 0, ptr %14, align 4, !tbaa !10
  br label %37

37:                                               ; preds = %36, %33
  %38 = load i32, ptr %14, align 4, !tbaa !10
  %39 = icmp ne i32 %38, 0
  br i1 %39, label %40, label %41

40:                                               ; preds = %37
  br label %25, !llvm.loop !95

41:                                               ; preds = %37
  %42 = load i32, ptr %11, align 4, !tbaa !10
  %43 = icmp ne i32 %42, 48
  br i1 %43, label %44, label %48

44:                                               ; preds = %41
  %45 = load i32, ptr %11, align 4, !tbaa !10
  %46 = icmp ne i32 %45, 49
  br i1 %46, label %47, label %48

47:                                               ; preds = %44
  br label %25, !llvm.loop !95

48:                                               ; preds = %44, %41
  %49 = load i32, ptr %13, align 4, !tbaa !10
  %50 = load i32, ptr %7, align 4, !tbaa !10
  %51 = icmp eq i32 %49, %50
  br i1 %51, label %52, label %58

52:                                               ; preds = %48
  %53 = load ptr, ptr %10, align 8, !tbaa !73
  %54 = load i32, ptr %11, align 4, !tbaa !10
  %55 = sub nsw i32 %54, 48
  call void @Vec_IntPush(ptr noundef %53, i32 noundef %55)
  store i32 0, ptr %13, align 4, !tbaa !10
  %56 = load i32, ptr %12, align 4, !tbaa !10
  %57 = add nsw i32 %56, 1
  store i32 %57, ptr %12, align 4, !tbaa !10
  br label %71

58:                                               ; preds = %48
  %59 = load i32, ptr %11, align 4, !tbaa !10
  %60 = icmp eq i32 %59, 49
  br i1 %60, label %61, label %68

61:                                               ; preds = %58
  %62 = load ptr, ptr %9, align 8, !tbaa !3
  %63 = load i32, ptr %13, align 4, !tbaa !10
  %64 = load i32, ptr %8, align 4, !tbaa !10
  %65 = mul nsw i32 %63, %64
  %66 = call ptr @Vec_WrdEntryP(ptr noundef %62, i32 noundef %65)
  %67 = load i32, ptr %12, align 4, !tbaa !10
  call void @Abc_TtSetBit(ptr noundef %66, i32 noundef %67)
  br label %68

68:                                               ; preds = %61, %58
  %69 = load i32, ptr %13, align 4, !tbaa !10
  %70 = add nsw i32 %69, 1
  store i32 %70, ptr %13, align 4, !tbaa !10
  br label %71

71:                                               ; preds = %68, %52
  br label %25, !llvm.loop !95

72:                                               ; preds = %25
  %73 = load ptr, ptr %15, align 8, !tbaa !54
  %74 = call i32 @fclose(ptr noundef %73)
  %75 = load i32, ptr %8, align 4, !tbaa !10
  %76 = mul nsw i32 64, %75
  %77 = load i32, ptr %7, align 4, !tbaa !10
  %78 = load ptr, ptr %10, align 8, !tbaa !73
  %79 = call i32 @Vec_IntSum(ptr noundef %78)
  %80 = sitofp i32 %79 to double
  %81 = fmul double 1.000000e+02, %80
  %82 = load i32, ptr %12, align 4, !tbaa !10
  %83 = sitofp i32 %82 to double
  %84 = fdiv double %81, %83
  %85 = call i32 (ptr, ...) @printf(ptr noundef @.str.37, i32 noundef %76, i32 noundef %77, double noundef %84)
  store i32 0, ptr %16, align 4
  br label %86

86:                                               ; preds = %72, %21
  call void @llvm.lifetime.end.p0(i64 8, ptr %15) #15
  call void @llvm.lifetime.end.p0(i64 4, ptr %14) #15
  call void @llvm.lifetime.end.p0(i64 4, ptr %13) #15
  call void @llvm.lifetime.end.p0(i64 4, ptr %12) #15
  call void @llvm.lifetime.end.p0(i64 4, ptr %11) #15
  %87 = load i32, ptr %16, align 4
  switch i32 %87, label %89 [
    i32 0, label %88
    i32 1, label %88
  ]

88:                                               ; preds = %86, %86
  ret void

89:                                               ; preds = %86
  unreachable
}