; Function Attrs: nounwind uwtable
define void @Gia_ManSimFileRead(ptr noundef %0, i32 noundef %1, i32 noundef %2, ptr noundef readonly captures(none) %3, ptr noundef captures(none) %4) local_unnamed_addr #0 {
  %6 = tail call noalias ptr @fopen(ptr noundef %0, ptr noundef nonnull @.str.33)
  %7 = icmp eq ptr %6, null
  br i1 %7, label %10, label %.preheader

.preheader:                                       ; preds = %5
  %8 = getelementptr i8, ptr %3, i64 8
  %9 = getelementptr inbounds nuw i8, ptr %4, i64 4
  %.phi.trans.insert.i = getelementptr inbounds nuw i8, ptr %4, i64 8
  br label %.outer.outer

10:                                               ; preds = %5
  %11 = tail call i32 (ptr, ...) @printf(ptr noundef nonnull dereferenceable(1) @.str.34, ptr noundef %0)
  br label %82

.backedge:                                        ; preds = %.backedge.backedge, %.outer
  %.025 = phi i32 [ 0, %.outer ], [ %.025.be, %.backedge.backedge ]
  %12 = tail call i32 @fgetc(ptr noundef nonnull %6)
  switch i32 %12, label %14 [
    i32 -1, label %67
    i32 46, label %13
  ]

13:                                               ; preds = %.backedge
  br label %14

14:                                               ; preds = %.backedge, %13
  %.126 = phi i32 [ 1, %13 ], [ %.025, %.backedge ]
  %15 = icmp eq i32 %12, 10
  %.not3031 = icmp eq i32 %.126, 0
  %.not30 = or i1 %15, %.not3031
  br i1 %.not30, label %16, label %.backedge.backedge

.backedge.backedge:                               ; preds = %14, %16
  %.025.be = phi i32 [ 1, %14 ], [ 0, %16 ]
  br label %.backedge, !llvm.loop !87

16:                                               ; preds = %14
  %17 = add i32 %12, -50
  %or.cond = icmp ult i32 %17, -2
  br i1 %or.cond, label %.backedge.backedge, label %18

18:                                               ; preds = %16
  %19 = icmp eq i32 %.027.ph, %1
  br i1 %19, label %20, label %56

20:                                               ; preds = %18
  %21 = add nsw i32 %12, -48
  %22 = load i32, ptr %9, align 4, !tbaa !41
  %23 = load i32, ptr %4, align 8, !tbaa !43
  %24 = icmp eq i32 %22, %23
  br i1 %24, label %25, label %.Vec_IntGrow.exit10_crit_edge.i

.Vec_IntGrow.exit10_crit_edge.i:                  ; preds = %20
  %.pre.i = load ptr, ptr %.phi.trans.insert.i, align 8, !tbaa !44
  br label %Vec_IntPush.exit

25:                                               ; preds = %20
  %26 = icmp slt i32 %22, 16
  br i1 %26, label %27, label %34

27:                                               ; preds = %25
  %28 = load ptr, ptr %.phi.trans.insert.i, align 8, !tbaa !44
  %.not9.i.i = icmp eq ptr %28, null
  br i1 %.not9.i.i, label %31, label %29

29:                                               ; preds = %27
  %30 = tail call dereferenceable_or_null(64) ptr @realloc(ptr noundef nonnull %28, i64 noundef 64) #22
  br label %Vec_IntGrow.exit.i

31:                                               ; preds = %27
  %32 = tail call noalias dereferenceable_or_null(64) ptr @malloc(i64 noundef 64) #23
  br label %Vec_IntGrow.exit.i

Vec_IntGrow.exit.i:                               ; preds = %31, %29
  %33 = phi ptr [ %30, %29 ], [ %32, %31 ]
  store ptr %33, ptr %.phi.trans.insert.i, align 8, !tbaa !44
  store i32 16, ptr %4, align 8, !tbaa !43
  br label %Vec_IntPush.exit

34:                                               ; preds = %25
  %35 = shl nuw nsw i32 %22, 1
  %36 = load ptr, ptr %.phi.trans.insert.i, align 8, !tbaa !44
  %.not9.i9.i = icmp eq ptr %36, null
  %37 = zext nneg i32 %35 to i64
  %38 = shl nuw nsw i64 %37, 2
  br i1 %.not9.i9.i, label %41, label %39

39:                                               ; preds = %34
  %40 = tail call ptr @realloc(ptr noundef nonnull %36, i64 noundef %38) #22
  br label %43

41:                                               ; preds = %34
  %42 = tail call noalias ptr @malloc(i64 noundef %38) #23
  br label %43

43:                                               ; preds = %41, %39
  %44 = phi ptr [ %40, %39 ], [ %42, %41 ]
  store ptr %44, ptr %.phi.trans.insert.i, align 8, !tbaa !44
  store i32 %35, ptr %4, align 8, !tbaa !43
  br label %Vec_IntPush.exit

Vec_IntPush.exit:                                 ; preds = %.Vec_IntGrow.exit10_crit_edge.i, %Vec_IntGrow.exit.i, %43
  %45 = phi ptr [ %.pre.i, %.Vec_IntGrow.exit10_crit_edge.i ], [ %44, %43 ], [ %33, %Vec_IntGrow.exit.i ]
  %46 = load i32, ptr %9, align 4, !tbaa !41
  %47 = add nsw i32 %46, 1
  store i32 %47, ptr %9, align 4, !tbaa !41
  %48 = sext i32 %46 to i64
  %49 = getelementptr inbounds i32, ptr %45, i64 %48
  store i32 %21, ptr %49, align 4, !tbaa !19
  %50 = add nuw nsw i32 %.0.ph.ph, 1
  br label %.outer.outer, !llvm.loop !87

.outer.outer:                                     ; preds = %Vec_IntPush.exit, %.preheader
  %.0.ph.ph = phi i32 [ %50, %Vec_IntPush.exit ], [ 0, %.preheader ]
  %51 = and i32 %.0.ph.ph, 63
  %52 = zext nneg i32 %51 to i64
  %53 = shl nuw i64 1, %52
  %54 = lshr i32 %.0.ph.ph, 6
  %55 = zext nneg i32 %54 to i64
  br label %.outer

56:                                               ; preds = %18
  %57 = icmp eq i32 %12, 49
  br i1 %57, label %58, label %65

58:                                               ; preds = %56
  %59 = mul nsw i32 %.027.ph, %2
  %.val = load ptr, ptr %8, align 8, !tbaa !13
  %60 = sext i32 %59 to i64
  %61 = getelementptr inbounds i64, ptr %.val, i64 %60
  %62 = getelementptr inbounds nuw i64, ptr %61, i64 %55
  %63 = load i64, ptr %62, align 8, !tbaa !16
  %64 = or i64 %63, %53
  store i64 %64, ptr %62, align 8, !tbaa !16
  br label %65

65:                                               ; preds = %58, %56
  %66 = add nuw nsw i32 %.027.ph, 1
  br label %.outer, !llvm.loop !87

.outer:                                           ; preds = %.outer.outer, %65
  %.027.ph = phi i32 [ %66, %65 ], [ 0, %.outer.outer ]
  br label %.backedge

67:                                               ; preds = %.backedge
  %68 = tail call i32 @fclose(ptr noundef nonnull %6)
  %69 = shl nsw i32 %2, 6
  %70 = load i32, ptr %9, align 4, !tbaa !41
  %71 = icmp sgt i32 %70, 0
  br i1 %71, label %.lr.ph.i, label %Vec_IntSum.exit

.lr.ph.i:                                         ; preds = %67
  %72 = load ptr, ptr %.phi.trans.insert.i, align 8, !tbaa !44
  %wide.trip.count.i = zext nneg i32 %70 to i64
  br label %73

73:                                               ; preds = %73, %.lr.ph.i
  %indvars.iv.i = phi i64 [ 0, %.lr.ph.i ], [ %indvars.iv.next.i, %73 ]
  %.08.i = phi i32 [ 0, %.lr.ph.i ], [ %76, %73 ]
  %74 = getelementptr inbounds nuw i32, ptr %72, i64 %indvars.iv.i
  %75 = load i32, ptr %74, align 4, !tbaa !19
  %76 = add nsw i32 %75, %.08.i
  %indvars.iv.next.i = add nuw nsw i64 %indvars.iv.i, 1
  %exitcond.not.i = icmp eq i64 %indvars.iv.next.i, %wide.trip.count.i
  br i1 %exitcond.not.i, label %Vec_IntSum.exit.loopexit, label %73, !llvm.loop !88

Vec_IntSum.exit.loopexit:                         ; preds = %73
  %77 = sitofp i32 %76 to double
  %78 = fmul double %77, 1.000000e+02
  br label %Vec_IntSum.exit

Vec_IntSum.exit:                                  ; preds = %Vec_IntSum.exit.loopexit, %67
  %.0.lcssa.i = phi double [ 0.000000e+00, %67 ], [ %78, %Vec_IntSum.exit.loopexit ]
  %79 = uitofp nneg i32 %.0.ph.ph to double
  %80 = fdiv double %.0.lcssa.i, %79
  %81 = tail call i32 (ptr, ...) @printf(ptr noundef nonnull dereferenceable(1) @.str.37, i32 noundef %69, i32 noundef %1, double noundef %80)
  br label %82

82:                                               ; preds = %Vec_IntSum.exit, %10
  ret void
}